target datalayout = "e-m:e-p270:32:32-p271:32:32-p272:64:64-i64:64-i128:128-f80:128-n8:16:32:64-S128"
target triple = "x86_64-pc-linux-gnu"

%struct.SDL_Pen = type { i32, ptr, %struct.SDL_PenInfo, [7 x float], float, float, i32, ptr }
%struct.SDL_PenInfo = type { i32, float, i32, i32, i32 }
%union.SDL_Event = type { %struct.SDL_MouseWheelEvent, [72 x i8] }
%struct.SDL_MouseWheelEvent = type { i32, i32, i64, i32, i32, float, float, i32, float, float, i32, i32 }
%struct.SDL_Window = type { i32, ptr, ptr, i32, i32, i32, i32, i32, i32, i32, i32, float, float, i32, i32, i64, i64, float, i8, i8, i32, i32, %struct.SDL_Rect, %struct.SDL_Rect, %struct.SDL_Rect, i8, i8, i8, %struct.SDL_DisplayMode, %struct.SDL_DisplayMode, %struct.SDL_HDROutputProperties, float, ptr, i8, i8, i8, i8, i8, i8, i8, i8, i8, i32, i32, i32, i32, %struct.SDL_Rect, i32, i8, %struct.SDL_Rect, i32, %struct.SDL_Rect, ptr, ptr, i32, float, i32, i32, ptr, ptr, ptr, ptr, ptr, ptr, ptr, ptr, ptr }
%struct.SDL_DisplayMode = type { i32, i32, i32, i32, float, float, i32, i32, ptr }
%struct.SDL_HDROutputProperties = type { float, float }
%struct.SDL_Rect = type { i32, i32, i32, i32 }
%struct.SDL_Mouse = type { ptr, ptr, ptr, ptr, ptr, ptr, ptr, ptr, ptr, ptr, ptr, ptr, ptr, ptr, i8, float, float, ptr, float, float, float, float, float, float, float, float, double, double, i8, i8, i8, i8, i8, i8, i8, i8, i64, i8, float, i8, float, i8, i32, i32, i8, i8, i8, i8, i8, i8, i8, i8, i8, ptr, i32, ptr, ptr, ptr, ptr, i8, ptr }
%struct.SDL_PenMotionEvent = type { i32, i32, i64, i32, i32, i32, float, float }

@pen_device_rwlock = internal global ptr null, align 8
@pen_device_count = internal global i32 0, align 4
@pen_devices = internal global ptr null, align 8
@pen_touching = internal global i32 0, align 4
@.str.1 = private unnamed_addr constant [24 x i8] c"Invalid pen instance ID\00", align 1

; Function Attrs: nounwind uwtable
define internal ptr @FindPenByInstanceId(i32 noundef %0) #0 {
  %2 = alloca ptr, align 8
  %3 = alloca i32, align 4
  %4 = alloca i32, align 4
  %5 = alloca i32, align 4
  store i32 %0, ptr %3, align 4
  %6 = load i32, ptr %3, align 4
  %7 = icmp ne i32 %6, 0
  br i1 %7, label %8, label %35

8:                                                ; preds = %1
  call void @llvm.lifetime.start.p0(i64 4, ptr %4) #6
  store i32 0, ptr %4, align 4
  br label %9

9:                                                ; preds = %29, %8
  %10 = load i32, ptr %4, align 4
  %11 = load i32, ptr @pen_device_count, align 4
  %12 = icmp slt i32 %10, %11
  br i1 %12, label %14, label %13

13:                                               ; preds = %9
  store i32 2, ptr %5, align 4
  br label %32

14:                                               ; preds = %9
  %15 = load ptr, ptr @pen_devices, align 8
  %16 = load i32, ptr %4, align 4
  %17 = sext i32 %16 to i64
  %18 = getelementptr inbounds %struct.SDL_Pen, ptr %15, i64 %17
  %19 = getelementptr inbounds nuw %struct.SDL_Pen, ptr %18, i32 0, i32 0
  %20 = load i32, ptr %19, align 8
  %21 = load i32, ptr %3, align 4
  %22 = icmp eq i32 %20, %21
  br i1 %22, label %23, label %28

23:                                               ; preds = %14
  %24 = load ptr, ptr @pen_devices, align 8
  %25 = load i32, ptr %4, align 4
  %26 = sext i32 %25 to i64
  %27 = getelementptr inbounds %struct.SDL_Pen, ptr %24, i64 %26
  store ptr %27, ptr %2, align 8
  store i32 1, ptr %5, align 4
  br label %32

28:                                               ; preds = %14
  br label %29

29:                                               ; preds = %28
  %30 = load i32, ptr %4, align 4
  %31 = add nsw i32 %30, 1
  store i32 %31, ptr %4, align 4
  br label %9, !llvm.loop !7

32:                                               ; preds = %23, %13
  call void @llvm.lifetime.end.p0(i64 4, ptr %4) #6
  %33 = load i32, ptr %5, align 4
  switch i32 %33, label %39 [
    i32 2, label %34
    i32 1, label %37
  ]

34:                                               ; preds = %32
  br label %35

35:                                               ; preds = %34, %1
  %36 = call zeroext i1 (ptr, ...) @SDL_SetError_REAL(ptr noundef @.str.1)
  store ptr null, ptr %2, align 8
  br label %37

37:                                               ; preds = %35, %32
  %38 = load ptr, ptr %2, align 8
  ret ptr %38

39:                                               ; preds = %32
  unreachable
}

; Function Attrs: nounwind uwtable
define hidden void @SDL_SendPenMotion(i64 noundef %0, i32 noundef %1, ptr noundef %2, float noundef %3, float noundef %4) #0 {
  %6 = alloca i64, align 8
  %7 = alloca i32, align 4
  %8 = alloca ptr, align 8
  %9 = alloca float, align 4
  %10 = alloca float, align 4
  %11 = alloca i8, align 1
  %12 = alloca i32, align 4
  %13 = alloca ptr, align 8
  %14 = alloca %union.SDL_Event, align 8
  %15 = alloca ptr, align 8
  %16 = alloca float, align 4
  %17 = alloca float, align 4
  store i64 %0, ptr %6, align 8
  store i32 %1, ptr %7, align 4
  store ptr %2, ptr %8, align 8
  store float %3, ptr %9, align 4
  store float %4, ptr %10, align 4
  call void @llvm.lifetime.start.p0(i64 1, ptr %11) #6
  store i8 0, ptr %11, align 1
  call void @llvm.lifetime.start.p0(i64 4, ptr %12) #6
  store i32 0, ptr %12, align 4
  %18 = load ptr, ptr @pen_device_rwlock, align 8
  call void @SDL_LockRWLockForReading_REAL(ptr noundef %18)
  call void @llvm.lifetime.start.p0(i64 8, ptr %13) #6
  %19 = load i32, ptr %7, align 4
  %20 = call ptr @FindPenByInstanceId(i32 noundef %19)
  store ptr %20, ptr %13, align 8
  %21 = load ptr, ptr %13, align 8
  %22 = icmp ne ptr %21, null
  br i1 %22, label %23, label %46

23:                                               ; preds = %5
  %24 = load ptr, ptr %13, align 8
  %25 = getelementptr inbounds nuw %struct.SDL_Pen, ptr %24, i32 0, i32 4
  %26 = load float, ptr %25, align 8
  %27 = load float, ptr %9, align 4
  %28 = fcmp une float %26, %27
  br i1 %28, label %35, label %29

29:                                               ; preds = %23
  %30 = load ptr, ptr %13, align 8
  %31 = getelementptr inbounds nuw %struct.SDL_Pen, ptr %30, i32 0, i32 5
  %32 = load float, ptr %31, align 4
  %33 = load float, ptr %10, align 4
  %34 = fcmp une float %32, %33
  br i1 %34, label %35, label %45

35:                                               ; preds = %29, %23
  %36 = load float, ptr %9, align 4
  %37 = load ptr, ptr %13, align 8
  %38 = getelementptr inbounds nuw %struct.SDL_Pen, ptr %37, i32 0, i32 4
  store float %36, ptr %38, align 8
  %39 = load float, ptr %10, align 4
  %40 = load ptr, ptr %13, align 8
  %41 = getelementptr inbounds nuw %struct.SDL_Pen, ptr %40, i32 0, i32 5
  store float %39, ptr %41, align 4
  %42 = load ptr, ptr %13, align 8
  %43 = getelementptr inbounds nuw %struct.SDL_Pen, ptr %42, i32 0, i32 6
  %44 = load i32, ptr %43, align 8
  store i32 %44, ptr %12, align 4
  store i8 1, ptr %11, align 1
  br label %45

45:                                               ; preds = %35, %29
  br label %46

46:                                               ; preds = %45, %5
  %47 = load ptr, ptr @pen_device_rwlock, align 8
  call void @SDL_UnlockRWLock_REAL(ptr noundef %47)
  %48 = load i8, ptr %11, align 1, !range !9, !noundef !10
  %49 = trunc i8 %48 to i1
  br i1 %49, label %50, label %134

50:                                               ; preds = %46
  %51 = call zeroext i1 @SDL_EventEnabled_REAL(i32 noundef 4870)
  br i1 %51, label %52, label %134

52:                                               ; preds = %50
  call void @llvm.lifetime.start.p0(i64 128, ptr %14) #6
  call void @llvm.memset.p0.i64(ptr align 8 %14, i8 0, i64 128, i1 false)
  %53 = getelementptr inbounds nuw %struct.SDL_PenMotionEvent, ptr %14, i32 0, i32 0
  store i32 4870, ptr %53, align 8
  %54 = load i64, ptr %6, align 8
  %55 = getelementptr inbounds nuw %struct.SDL_PenMotionEvent, ptr %14, i32 0, i32 2
  store i64 %54, ptr %55, align 8
  %56 = load ptr, ptr %8, align 8
  %57 = icmp ne ptr %56, null
  br i1 %57, label %58, label %62

58:                                               ; preds = %52
  %59 = load ptr, ptr %8, align 8
  %60 = getelementptr inbounds nuw %struct.SDL_Window, ptr %59, i32 0, i32 0
  %61 = load i32, ptr %60, align 8
  br label %63

62:                                               ; preds = %52
  br label %63

63:                                               ; preds = %62, %58
  %64 = phi i32 [ %61, %58 ], [ 0, %62 ]
  %65 = getelementptr inbounds nuw %struct.SDL_PenMotionEvent, ptr %14, i32 0, i32 3
  store i32 %64, ptr %65, align 8
  %66 = load i32, ptr %7, align 4
  %67 = getelementptr inbounds nuw %struct.SDL_PenMotionEvent, ptr %14, i32 0, i32 4
  store i32 %66, ptr %67, align 4
  %68 = load i32, ptr %12, align 4
  %69 = getelementptr inbounds nuw %struct.SDL_PenMotionEvent, ptr %14, i32 0, i32 5
  store i32 %68, ptr %69, align 8
  %70 = load float, ptr %9, align 4
  %71 = getelementptr inbounds nuw %struct.SDL_PenMotionEvent, ptr %14, i32 0, i32 6
  store float %70, ptr %71, align 4
  %72 = load float, ptr %10, align 4
  %73 = getelementptr inbounds nuw %struct.SDL_PenMotionEvent, ptr %14, i32 0, i32 7
  store float %72, ptr %73, align 8
  %74 = call zeroext i1 @SDL_PushEvent_REAL(ptr noundef %14)
  %75 = load ptr, ptr %8, align 8
  %76 = icmp ne ptr %75, null
  br i1 %76, label %77, label %133

77:                                               ; preds = %63
  call void @llvm.lifetime.start.p0(i64 8, ptr %15) #6
  %78 = call ptr @SDL_GetMouse()
  store ptr %78, ptr %15, align 8
  %79 = load ptr, ptr %15, align 8
  %80 = icmp ne ptr %79, null
  br i1 %80, label %81, label %132

81:                                               ; preds = %77
  %82 = load i32, ptr @pen_touching, align 4
  %83 = load i32, ptr %7, align 4
  %84 = icmp eq i32 %82, %83
  br i1 %84, label %85, label %122

85:                                               ; preds = %81
  %86 = load ptr, ptr %15, align 8
  %87 = getelementptr inbounds nuw %struct.SDL_Mouse, ptr %86, i32 0, i32 46
  %88 = load i8, ptr %87, align 2, !range !9, !noundef !10
  %89 = trunc i8 %88 to i1
  br i1 %89, label %90, label %95

90:                                               ; preds = %85
  %91 = load i64, ptr %6, align 8
  %92 = load ptr, ptr %8, align 8
  %93 = load float, ptr %9, align 4
  %94 = load float, ptr %10, align 4
  call void @SDL_SendMouseMotion(i64 noundef %91, ptr noundef %92, i32 noundef -2, i1 noundef zeroext false, float noundef %93, float noundef %94)
  br label %95

95:                                               ; preds = %90, %85
  %96 = load ptr, ptr %15, align 8
  %97 = getelementptr inbounds nuw %struct.SDL_Mouse, ptr %96, i32 0, i32 47
  %98 = load i8, ptr %97, align 1, !range !9, !noundef !10
  %99 = trunc i8 %98 to i1
  br i1 %99, label %100, label %121

100:                                              ; preds = %95
  call void @llvm.lifetime.start.p0(i64 4, ptr %16) #6
  %101 = load float, ptr %9, align 4
  %102 = load ptr, ptr %8, align 8
  %103 = getelementptr inbounds nuw %struct.SDL_Window, ptr %102, i32 0, i32 5
  %104 = load i32, ptr %103, align 8
  %105 = sitofp i32 %104 to float
  %106 = fdiv float %101, %105
  store float %106, ptr %16, align 4
  call void @llvm.lifetime.start.p0(i64 4, ptr %17) #6
  %107 = load float, ptr %10, align 4
  %108 = load ptr, ptr %8, align 8
  %109 = getelementptr inbounds nuw %struct.SDL_Window, ptr %108, i32 0, i32 6
  %110 = load i32, ptr %109, align 4
  %111 = sitofp i32 %110 to float
  %112 = fdiv float %107, %111
  store float %112, ptr %17, align 4
  %113 = load i64, ptr %6, align 8
  %114 = load ptr, ptr %8, align 8
  %115 = load float, ptr %16, align 4
  %116 = load float, ptr %17, align 4
  %117 = load ptr, ptr %13, align 8
  %118 = getelementptr inbounds nuw %struct.SDL_Pen, ptr %117, i32 0, i32 3
  %119 = getelementptr inbounds [7 x float], ptr %118, i64 0, i64 0
  %120 = load float, ptr %119, align 4
  call void @SDL_SendTouchMotion(i64 noundef %113, i64 noundef -2, i64 noundef 1, ptr noundef %114, float noundef %115, float noundef %116, float noundef %120)
  call void @llvm.lifetime.end.p0(i64 4, ptr %17) #6
  call void @llvm.lifetime.end.p0(i64 4, ptr %16) #6
  br label %121

121:                                              ; preds = %100, %95
  br label %131

122:                                              ; preds = %81
  %123 = load i32, ptr @pen_touching, align 4
  %124 = icmp eq i32 %123, 0
  br i1 %124, label %125, label %130

125:                                              ; preds = %122
  %126 = load i64, ptr %6, align 8
  %127 = load ptr, ptr %8, align 8
  %128 = load float, ptr %9, align 4
  %129 = load float, ptr %10, align 4
  call void @SDL_SendMouseMotion(i64 noundef %126, ptr noundef %127, i32 noundef -2, i1 noundef zeroext false, float noundef %128, float noundef %129)
  br label %130

130:                                              ; preds = %125, %122
  br label %131

131:                                              ; preds = %130, %121
  br label %132

132:                                              ; preds = %131, %77
  call void @llvm.lifetime.end.p0(i64 8, ptr %15) #6
  br label %133

133:                                              ; preds = %132, %63
  call void @llvm.lifetime.end.p0(i64 128, ptr %14) #6
  br label %134

134:                                              ; preds = %133, %50, %46
  call void @llvm.lifetime.end.p0(i64 8, ptr %13) #6
  call void @llvm.lifetime.end.p0(i64 4, ptr %12) #6
  call void @llvm.lifetime.end.p0(i64 1, ptr %11) #6
  ret void
}