; Function Attrs: nounwind uwtable
define hidden void @SDL_SendPenMotion(i64 noundef %0, i32 noundef %1, ptr noundef %2, float noundef %3, float noundef %4) local_unnamed_addr #0 {
  %6 = alloca %union.SDL_Event, align 8
  %7 = load ptr, ptr @pen_device_rwlock, align 8
  tail call void @SDL_LockRWLockForReading_REAL(ptr noundef %7) #8
  %.not.i = icmp eq i32 %1, 0
  br i1 %.not.i, label %FindPenByInstanceId.exit.thread, label %.preheader.i

.preheader.i:                                     ; preds = %5
  %8 = load i32, ptr @pen_device_count, align 4
  %9 = icmp sgt i32 %8, 0
  br i1 %9, label %.lr.ph.i, label %FindPenByInstanceId.exit.thread

.lr.ph.i:                                         ; preds = %.preheader.i
  %10 = load ptr, ptr @pen_devices, align 8
  %wide.trip.count.i = zext nneg i32 %8 to i64
  br label %12

11:                                               ; preds = %12
  %indvars.iv.next.i = add nuw nsw i64 %indvars.iv.i, 1
  %exitcond.not.i = icmp eq i64 %indvars.iv.next.i, %wide.trip.count.i
  br i1 %exitcond.not.i, label %FindPenByInstanceId.exit.thread, label %12, !llvm.loop !7

12:                                               ; preds = %11, %.lr.ph.i
  %indvars.iv.i = phi i64 [ 0, %.lr.ph.i ], [ %indvars.iv.next.i, %11 ]
  %13 = getelementptr inbounds nuw %struct.SDL_Pen, ptr %10, i64 %indvars.iv.i
  %14 = load i32, ptr %13, align 8
  %15 = icmp eq i32 %14, %1
  br i1 %15, label %FindPenByInstanceId.exit, label %11

FindPenByInstanceId.exit.thread:                  ; preds = %11, %5, %.preheader.i
  %16 = tail call zeroext i1 (ptr, ...) @SDL_SetError_REAL(ptr noundef nonnull @.str.1) #8
  br label %.thread

FindPenByInstanceId.exit:                         ; preds = %12
  %17 = getelementptr inbounds nuw i8, ptr %13, i64 64
  %18 = load float, ptr %17, align 8
  %19 = fcmp une float %18, %3
  br i1 %19, label %25, label %20

20:                                               ; preds = %FindPenByInstanceId.exit
  %21 = getelementptr inbounds nuw i8, ptr %13, i64 68
  %22 = load float, ptr %21, align 4
  %23 = fcmp une float %22, %4
  br i1 %23, label %25, label %.thread

.thread:                                          ; preds = %20, %FindPenByInstanceId.exit.thread
  %24 = load ptr, ptr @pen_device_rwlock, align 8
  tail call void @SDL_UnlockRWLock_REAL(ptr noundef %24) #8
  br label %72

25:                                               ; preds = %20, %FindPenByInstanceId.exit
  store float %3, ptr %17, align 8
  %26 = getelementptr inbounds nuw i8, ptr %13, i64 68
  store float %4, ptr %26, align 4
  %27 = getelementptr inbounds nuw i8, ptr %13, i64 72
  %28 = load i32, ptr %27, align 8
  %29 = load ptr, ptr @pen_device_rwlock, align 8
  tail call void @SDL_UnlockRWLock_REAL(ptr noundef %29) #8
  %30 = tail call zeroext i1 @SDL_EventEnabled_REAL(i32 noundef 4870) #8
  br i1 %30, label %31, label %72

31:                                               ; preds = %25
  call void @llvm.lifetime.start.p0(i64 128, ptr nonnull %6) #8
  call void @llvm.memset.p0.i64(ptr noundef nonnull align 8 dereferenceable(128) %6, i8 0, i64 128, i1 false)
  store i32 4870, ptr %6, align 8
  %32 = getelementptr inbounds nuw i8, ptr %6, i64 8
  store i64 %0, ptr %32, align 8
  %.not45 = icmp eq ptr %2, null
  br i1 %.not45, label %35, label %33

33:                                               ; preds = %31
  %34 = load i32, ptr %2, align 8
  br label %35

35:                                               ; preds = %31, %33
  %36 = phi i32 [ %34, %33 ], [ 0, %31 ]
  %37 = getelementptr inbounds nuw i8, ptr %6, i64 16
  store i32 %36, ptr %37, align 8
  %38 = getelementptr inbounds nuw i8, ptr %6, i64 20
  store i32 %1, ptr %38, align 4
  %39 = getelementptr inbounds nuw i8, ptr %6, i64 24
  store i32 %28, ptr %39, align 8
  %40 = getelementptr inbounds nuw i8, ptr %6, i64 28
  store float %3, ptr %40, align 4
  %41 = getelementptr inbounds nuw i8, ptr %6, i64 32
  store float %4, ptr %41, align 8
  %42 = call zeroext i1 @SDL_PushEvent_REAL(ptr noundef nonnull %6) #8
  br i1 %.not45, label %71, label %43

43:                                               ; preds = %35
  %44 = call ptr @SDL_GetMouse() #8
  %.not46 = icmp eq ptr %44, null
  br i1 %.not46, label %71, label %45

45:                                               ; preds = %43
  %46 = load i32, ptr @pen_touching, align 4
  %47 = icmp eq i32 %46, %1
  br i1 %47, label %48, label %68

48:                                               ; preds = %45
  %49 = getelementptr inbounds nuw i8, ptr %44, i64 230
  %50 = load i8, ptr %49, align 2, !range !9, !noundef !10
  %51 = trunc nuw i8 %50 to i1
  br i1 %51, label %52, label %53

52:                                               ; preds = %48
  call void @SDL_SendMouseMotion(i64 noundef %0, ptr noundef nonnull %2, i32 noundef -2, i1 noundef zeroext false, float noundef %3, float noundef %4) #8
  br label %53

53:                                               ; preds = %52, %48
  %54 = getelementptr inbounds nuw i8, ptr %44, i64 231
  %55 = load i8, ptr %54, align 1, !range !9, !noundef !10
  %56 = trunc nuw i8 %55 to i1
  br i1 %56, label %57, label %71

57:                                               ; preds = %53
  %58 = getelementptr inbounds nuw i8, ptr %2, i64 32
  %59 = load i32, ptr %58, align 8
  %60 = sitofp i32 %59 to float
  %61 = fdiv float %3, %60
  %62 = getelementptr inbounds nuw i8, ptr %2, i64 36
  %63 = load i32, ptr %62, align 4
  %64 = sitofp i32 %63 to float
  %65 = fdiv float %4, %64
  %66 = getelementptr inbounds nuw i8, ptr %13, i64 36
  %67 = load float, ptr %66, align 4
  call void @SDL_SendTouchMotion(i64 noundef %0, i64 noundef -2, i64 noundef 1, ptr noundef nonnull %2, float noundef %61, float noundef %65, float noundef %67) #8
  br label %71

68:                                               ; preds = %45
  %69 = icmp eq i32 %46, 0
  br i1 %69, label %70, label %71

70:                                               ; preds = %68
  call void @SDL_SendMouseMotion(i64 noundef %0, ptr noundef nonnull %2, i32 noundef -2, i1 noundef zeroext false, float noundef %3, float noundef %4) #8
  br label %71

71:                                               ; preds = %43, %68, %70, %53, %57, %35
  call void @llvm.lifetime.end.p0(i64 128, ptr nonnull %6) #8
  br label %72

72:                                               ; preds = %.thread, %71, %25
  ret void
}